target datalayout = "e-m:e-p270:32:32-p271:32:32-p272:64:64-i64:64-i128:128-f80:128-n8:16:32:64-S128"
target triple = "x86_64-pc-linux-gnu"

%struct.UConverterSharedData = type { i32, i32, ptr, ptr, i8, i8, ptr, i32, %struct.UConverterMBCSTable }
%struct.UConverterMBCSTable = type { i8, i8, i8, i32, ptr, ptr, ptr, ptr, ptr, ptr, [64 x i16], ptr, ptr, i32, i8, i8, i8, i16, i32, ptr, ptr, ptr, ptr }
%struct.UConverter = type { ptr, ptr, ptr, ptr, ptr, ptr, ptr, i32, i8, i8, i8, i8, i8, [7 x i8], i32, i32, i32, i32, i8, i8, i8, i8, i8, i8, i8, i8, [8 x i8], [32 x i8], [2 x i16], [2 x i16], [32 x i16], i32, [19 x i16], [31 x i8], i8, i8, i8, i32 }
%struct.UConverterStaticData = type { i32, [60 x i8], i32, i8, i8, i8, i8, [4 x i8], i8, i8, i8, i8, i8, [19 x i8] }

; Function Attrs: mustprogress nounwind uwtable
define internal noundef ptr @_ZL16ucnv_MBCSGetNamePK10UConverter(ptr noundef %0) #4 {
  %2 = alloca ptr, align 8
  %3 = alloca ptr, align 8
  store ptr %0, ptr %3, align 8, !tbaa !60
  %4 = load ptr, ptr %3, align 8, !tbaa !60
  %5 = getelementptr inbounds nuw %struct.UConverter, ptr %4, i32 0, i32 7
  %6 = load i32, ptr %5, align 8, !tbaa !73
  %7 = and i32 %6, 16
  %8 = icmp ne i32 %7, 0
  br i1 %8, label %9, label %24

9:                                                ; preds = %1
  %10 = load ptr, ptr %3, align 8, !tbaa !60
  %11 = getelementptr inbounds nuw %struct.UConverter, ptr %10, i32 0, i32 6
  %12 = load ptr, ptr %11, align 8, !tbaa !64
  %13 = getelementptr inbounds nuw %struct.UConverterSharedData, ptr %12, i32 0, i32 8
  %14 = getelementptr inbounds nuw %struct.UConverterMBCSTable, ptr %13, i32 0, i32 20
  %15 = load ptr, ptr %14, align 8, !tbaa !195
  %16 = icmp ne ptr %15, null
  br i1 %16, label %17, label %24

17:                                               ; preds = %9
  %18 = load ptr, ptr %3, align 8, !tbaa !60
  %19 = getelementptr inbounds nuw %struct.UConverter, ptr %18, i32 0, i32 6
  %20 = load ptr, ptr %19, align 8, !tbaa !64
  %21 = getelementptr inbounds nuw %struct.UConverterSharedData, ptr %20, i32 0, i32 8
  %22 = getelementptr inbounds nuw %struct.UConverterMBCSTable, ptr %21, i32 0, i32 20
  %23 = load ptr, ptr %22, align 8, !tbaa !195
  store ptr %23, ptr %2, align 8
  br label %32

24:                                               ; preds = %9, %1
  %25 = load ptr, ptr %3, align 8, !tbaa !60
  %26 = getelementptr inbounds nuw %struct.UConverter, ptr %25, i32 0, i32 6
  %27 = load ptr, ptr %26, align 8, !tbaa !64
  %28 = getelementptr inbounds nuw %struct.UConverterSharedData, ptr %27, i32 0, i32 3
  %29 = load ptr, ptr %28, align 8, !tbaa !142
  %30 = getelementptr inbounds nuw %struct.UConverterStaticData, ptr %29, i32 0, i32 1
  %31 = getelementptr inbounds [60 x i8], ptr %30, i64 0, i64 0
  store ptr %31, ptr %2, align 8
  br label %32

32:                                               ; preds = %24, %17
  %33 = load ptr, ptr %2, align 8
  ret ptr %33
}