; Function Attrs: mustprogress nofree norecurse nosync nounwind willreturn memory(read, inaccessiblemem: none) uwtable
define internal noundef nonnull ptr @_ZL16ucnv_MBCSGetNamePK10UConverter(ptr noundef readonly captures(none) %0) #3 {
  %2 = getelementptr inbounds nuw i8, ptr %0, i64 56
  %3 = load i32, ptr %2, align 8, !tbaa !60
  %4 = and i32 %3, 16
  %.not = icmp eq i32 %4, 0
  %.phi.trans.insert = getelementptr inbounds nuw i8, ptr %0, i64 48
  %.pre = load ptr, ptr %.phi.trans.insert, align 8, !tbaa !50
  br i1 %.not, label %._crit_edge, label %5

5:                                                ; preds = %1
  %6 = getelementptr inbounds nuw i8, ptr %.pre, i64 272
  %7 = load ptr, ptr %6, align 8, !tbaa !173
  %.not6 = icmp eq ptr %7, null
  br i1 %.not6, label %._crit_edge, label %11

._crit_edge:                                      ; preds = %1, %5
  %8 = getelementptr inbounds nuw i8, ptr %.pre, i64 16
  %9 = load ptr, ptr %8, align 8, !tbaa !117
  %10 = getelementptr inbounds nuw i8, ptr %9, i64 4
  br label %11

11:                                               ; preds = %5, %._crit_edge
  %.0 = phi ptr [ %10, %._crit_edge ], [ %7, %5 ]
  ret ptr %.0
}